target datalayout = "e-m:e-p270:32:32-p271:32:32-p272:64:64-i64:64-i128:128-f80:128-n8:16:32:64-S128"
target triple = "x86_64-pc-linux-gnu"

%struct.Vec_Wrd_t_ = type { i32, i32, ptr }

; Function Attrs: inlinehint nounwind uwtable
define internal i64 @Vec_WrdEntry(ptr noundef %0, i32 noundef %1) #2 {
  %3 = alloca ptr, align 8
  %4 = alloca i32, align 4
  store ptr %0, ptr %3, align 8, !tbaa !7
  store i32 %1, ptr %4, align 4, !tbaa !3
  %5 = load ptr, ptr %3, align 8, !tbaa !7
  %6 = getelementptr inbounds nuw %struct.Vec_Wrd_t_, ptr %5, i32 0, i32 2
  %7 = load ptr, ptr %6, align 8, !tbaa !16
  %8 = load i32, ptr %4, align 4, !tbaa !3
  %9 = sext i32 %8 to i64
  %10 = getelementptr inbounds i64, ptr %7, i64 %9
  %11 = load i64, ptr %10, align 8, !tbaa !17
  ret i64 %11
}

; Function Attrs: inlinehint nounwind uwtable
define internal i32 @Vec_WrdSize(ptr noundef %0) #2 {
  %2 = alloca ptr, align 8
  store ptr %0, ptr %2, align 8, !tbaa !7
  %3 = load ptr, ptr %2, align 8, !tbaa !7
  %4 = getelementptr inbounds nuw %struct.Vec_Wrd_t_, ptr %3, i32 0, i32 1
  %5 = load i32, ptr %4, align 4, !tbaa !12
  ret i32 %5
}

; Function Attrs: inlinehint nounwind uwtable
define internal ptr @Vec_WrdLimit(ptr noundef %0) #2 {
  %2 = alloca ptr, align 8
  store ptr %0, ptr %2, align 8, !tbaa !7
  %3 = load ptr, ptr %2, align 8, !tbaa !7
  %4 = getelementptr inbounds nuw %struct.Vec_Wrd_t_, ptr %3, i32 0, i32 2
  %5 = load ptr, ptr %4, align 8, !tbaa !16
  %6 = load ptr, ptr %2, align 8, !tbaa !7
  %7 = getelementptr inbounds nuw %struct.Vec_Wrd_t_, ptr %6, i32 0, i32 1
  %8 = load i32, ptr %7, align 4, !tbaa !12
  %9 = sext i32 %8 to i64
  %10 = getelementptr inbounds i64, ptr %5, i64 %9
  ret ptr %10
}

; Function Attrs: inlinehint nounwind uwtable
define internal ptr @Vec_WrdArray(ptr noundef %0) #2 {
  %2 = alloca ptr, align 8
  store ptr %0, ptr %2, align 8, !tbaa !7
  %3 = load ptr, ptr %2, align 8, !tbaa !7
  %4 = getelementptr inbounds nuw %struct.Vec_Wrd_t_, ptr %3, i32 0, i32 2
  %5 = load ptr, ptr %4, align 8, !tbaa !16
  ret ptr %5
}

; Function Attrs: nounwind uwtable
define void @Abc_SuppGenProfile(ptr noundef %0, i32 noundef %1, ptr noundef %2) #0 {
  %4 = alloca ptr, align 8
  %5 = alloca i32, align 4
  %6 = alloca ptr, align 8
  %7 = alloca i64, align 8
  %8 = alloca i32, align 4
  %9 = alloca i32, align 4
  %10 = alloca i32, align 4
  store ptr %0, ptr %4, align 8, !tbaa !7
  store i32 %1, ptr %5, align 4, !tbaa !3
  store ptr %2, ptr %6, align 8, !tbaa !25
  call void @llvm.lifetime.start.p0(i64 8, ptr %7) #13
  call void @llvm.lifetime.start.p0(i64 4, ptr %8) #13
  call void @llvm.lifetime.start.p0(i64 4, ptr %9) #13
  call void @llvm.lifetime.start.p0(i64 4, ptr %10) #13
  store i32 0, ptr %8, align 4, !tbaa !3
  br label %11

11:                                               ; preds = %54, %3
  %12 = load i32, ptr %8, align 4, !tbaa !3
  %13 = load ptr, ptr %4, align 8, !tbaa !7
  %14 = call i32 @Vec_WrdSize(ptr noundef %13)
  %15 = icmp slt i32 %12, %14
  br i1 %15, label %16, label %20

16:                                               ; preds = %11
  %17 = load ptr, ptr %4, align 8, !tbaa !7
  %18 = load i32, ptr %8, align 4, !tbaa !3
  %19 = call i64 @Vec_WrdEntry(ptr noundef %17, i32 noundef %18)
  store i64 %19, ptr %7, align 8, !tbaa !17
  br label %20

20:                                               ; preds = %16, %11
  %21 = phi i1 [ false, %11 ], [ true, %16 ]
  br i1 %21, label %22, label %57

22:                                               ; preds = %20
  %23 = load i64, ptr %7, align 8, !tbaa !17
  %24 = load i32, ptr %5, align 4, !tbaa !3
  %25 = zext i32 %24 to i64
  %26 = lshr i64 %23, %25
  %27 = and i64 %26, 1
  %28 = trunc i64 %27 to i32
  store i32 %28, ptr %10, align 4, !tbaa !3
  store i32 0, ptr %9, align 4, !tbaa !3
  br label %29

29:                                               ; preds = %50, %22
  %30 = load i32, ptr %9, align 4, !tbaa !3
  %31 = load i32, ptr %5, align 4, !tbaa !3
  %32 = icmp slt i32 %30, %31
  br i1 %32, label %33, label %53

33:                                               ; preds = %29
  %34 = load i64, ptr %7, align 8, !tbaa !17
  %35 = load i32, ptr %9, align 4, !tbaa !3
  %36 = zext i32 %35 to i64
  %37 = lshr i64 %34, %36
  %38 = and i64 %37, 1
  %39 = load i32, ptr %10, align 4, !tbaa !3
  %40 = sext i32 %39 to i64
  %41 = xor i64 %38, %40
  %42 = load ptr, ptr %6, align 8, !tbaa !25
  %43 = load i32, ptr %9, align 4, !tbaa !3
  %44 = sext i32 %43 to i64
  %45 = getelementptr inbounds i32, ptr %42, i64 %44
  %46 = load i32, ptr %45, align 4, !tbaa !3
  %47 = sext i32 %46 to i64
  %48 = add i64 %47, %41
  %49 = trunc i64 %48 to i32
  store i32 %49, ptr %45, align 4, !tbaa !3
  br label %50

50:                                               ; preds = %33
  %51 = load i32, ptr %9, align 4, !tbaa !3
  %52 = add nsw i32 %51, 1
  store i32 %52, ptr %9, align 4, !tbaa !3
  br label %29, !llvm.loop !32

53:                                               ; preds = %29
  br label %54

54:                                               ; preds = %53
  %55 = load i32, ptr %8, align 4, !tbaa !3
  %56 = add nsw i32 %55, 1
  store i32 %56, ptr %8, align 4, !tbaa !3
  br label %11, !llvm.loop !33

57:                                               ; preds = %20
  call void @llvm.lifetime.end.p0(i64 4, ptr %10) #13
  call void @llvm.lifetime.end.p0(i64 4, ptr %9) #13
  call void @llvm.lifetime.end.p0(i64 4, ptr %8) #13
  call void @llvm.lifetime.end.p0(i64 8, ptr %7) #13
  ret void
}

; Function Attrs: nounwind uwtable
define void @Abc_SuppGenSelectVar(ptr noundef %0, i32 noundef %1, i32 noundef %2) #0 {
  %4 = alloca ptr, align 8
  %5 = alloca i32, align 4
  %6 = alloca i32, align 4
  %7 = alloca ptr, align 8
  %8 = alloca ptr, align 8
  store ptr %0, ptr %4, align 8, !tbaa !7
  store i32 %1, ptr %5, align 4, !tbaa !3
  store i32 %2, ptr %6, align 4, !tbaa !3
  call void @llvm.lifetime.start.p0(i64 8, ptr %7) #13
  %9 = load ptr, ptr %4, align 8, !tbaa !7
  %10 = call ptr @Vec_WrdArray(ptr noundef %9)
  store ptr %10, ptr %7, align 8, !tbaa !19
  call void @llvm.lifetime.start.p0(i64 8, ptr %8) #13
  %11 = load ptr, ptr %4, align 8, !tbaa !7
  %12 = call ptr @Vec_WrdLimit(ptr noundef %11)
  store ptr %12, ptr %8, align 8, !tbaa !19
  br label %13

13:                                               ; preds = %33, %3
  %14 = load ptr, ptr %7, align 8, !tbaa !19
  %15 = load ptr, ptr %8, align 8, !tbaa !19
  %16 = icmp ult ptr %14, %15
  br i1 %16, label %17, label %36

17:                                               ; preds = %13
  %18 = load ptr, ptr %7, align 8, !tbaa !19
  %19 = load i64, ptr %18, align 8, !tbaa !17
  %20 = load i32, ptr %6, align 4, !tbaa !3
  %21 = zext i32 %20 to i64
  %22 = lshr i64 %19, %21
  %23 = and i64 %22, 1
  %24 = icmp ne i64 %23, 0
  br i1 %24, label %25, label %32

25:                                               ; preds = %17
  %26 = load i32, ptr %5, align 4, !tbaa !3
  %27 = zext i32 %26 to i64
  %28 = shl i64 1, %27
  %29 = load ptr, ptr %7, align 8, !tbaa !19
  %30 = load i64, ptr %29, align 8, !tbaa !17
  %31 = xor i64 %30, %28
  store i64 %31, ptr %29, align 8, !tbaa !17
  br label %32

32:                                               ; preds = %25, %17
  br label %33

33:                                               ; preds = %32
  %34 = load ptr, ptr %7, align 8, !tbaa !19
  %35 = getelementptr inbounds nuw i64, ptr %34, i32 1
  store ptr %35, ptr %7, align 8, !tbaa !19
  br label %13, !llvm.loop !36

36:                                               ; preds = %13
  call void @llvm.lifetime.end.p0(i64 8, ptr %8) #13
  call void @llvm.lifetime.end.p0(i64 8, ptr %7) #13
  ret void
}

; Function Attrs: nounwind uwtable
define i32 @Abc_SuppGenFindBest(ptr noundef %0, i32 noundef %1, ptr noundef %2) #0 {
  %4 = alloca ptr, align 8
  %5 = alloca i32, align 4
  %6 = alloca ptr, align 8
  %7 = alloca i32, align 4
  %8 = alloca i32, align 4
  %9 = alloca [64 x i32], align 16
  store ptr %0, ptr %4, align 8, !tbaa !7
  store i32 %1, ptr %5, align 4, !tbaa !3
  store ptr %2, ptr %6, align 8, !tbaa !25
  call void @llvm.lifetime.start.p0(i64 4, ptr %7) #13
  call void @llvm.lifetime.start.p0(i64 4, ptr %8) #13
  store i32 0, ptr %8, align 4, !tbaa !3
  call void @llvm.lifetime.start.p0(i64 256, ptr %9) #13
  call void @llvm.memset.p0.i64(ptr align 16 %9, i8 0, i64 256, i1 false)
  %10 = load ptr, ptr %4, align 8, !tbaa !7
  %11 = load i32, ptr %5, align 4, !tbaa !3
  %12 = getelementptr inbounds [64 x i32], ptr %9, i64 0, i64 0
  call void @Abc_SuppGenProfile(ptr noundef %10, i32 noundef %11, ptr noundef %12)
  store i32 1, ptr %7, align 4, !tbaa !3
  br label %13

13:                                               ; preds = %30, %3
  %14 = load i32, ptr %7, align 4, !tbaa !3
  %15 = load i32, ptr %5, align 4, !tbaa !3
  %16 = icmp slt i32 %14, %15
  br i1 %16, label %17, label %33

17:                                               ; preds = %13
  %18 = load i32, ptr %8, align 4, !tbaa !3
  %19 = sext i32 %18 to i64
  %20 = getelementptr inbounds [64 x i32], ptr %9, i64 0, i64 %19
  %21 = load i32, ptr %20, align 4, !tbaa !3
  %22 = load i32, ptr %7, align 4, !tbaa !3
  %23 = sext i32 %22 to i64
  %24 = getelementptr inbounds [64 x i32], ptr %9, i64 0, i64 %23
  %25 = load i32, ptr %24, align 4, !tbaa !3
  %26 = icmp slt i32 %21, %25
  br i1 %26, label %27, label %29

27:                                               ; preds = %17
  %28 = load i32, ptr %7, align 4, !tbaa !3
  store i32 %28, ptr %8, align 4, !tbaa !3
  br label %29

29:                                               ; preds = %27, %17
  br label %30

30:                                               ; preds = %29
  %31 = load i32, ptr %7, align 4, !tbaa !3
  %32 = add nsw i32 %31, 1
  store i32 %32, ptr %7, align 4, !tbaa !3
  br label %13, !llvm.loop !35

33:                                               ; preds = %13
  %34 = load i32, ptr %8, align 4, !tbaa !3
  %35 = sext i32 %34 to i64
  %36 = getelementptr inbounds [64 x i32], ptr %9, i64 0, i64 %35
  %37 = load i32, ptr %36, align 4, !tbaa !3
  %38 = load ptr, ptr %6, align 8, !tbaa !25
  store i32 %37, ptr %38, align 4, !tbaa !3
  %39 = load i32, ptr %8, align 4, !tbaa !3
  call void @llvm.lifetime.end.p0(i64 256, ptr %9) #13
  call void @llvm.lifetime.end.p0(i64 4, ptr %8) #13
  call void @llvm.lifetime.end.p0(i64 4, ptr %7) #13
  ret i32 %39
}

; Function Attrs: nounwind uwtable
define i64 @Abc_SuppFindOne(ptr noundef %0, i32 noundef %1) #0 {
  %3 = alloca ptr, align 8
  %4 = alloca i32, align 4
  %5 = alloca i64, align 8
  %6 = alloca i32, align 4
  %7 = alloca i32, align 4
  %8 = alloca i32, align 4
  store ptr %0, ptr %3, align 8, !tbaa !7
  store i32 %1, ptr %4, align 4, !tbaa !3
  call void @llvm.lifetime.start.p0(i64 8, ptr %5) #13
  store i64 0, ptr %5, align 8, !tbaa !17
  call void @llvm.lifetime.start.p0(i64 4, ptr %6) #13
  store i32 -1, ptr %6, align 4, !tbaa !3
  call void @llvm.lifetime.start.p0(i64 4, ptr %7) #13
  call void @llvm.lifetime.start.p0(i64 4, ptr %8) #13
  br label %9

9:                                                ; preds = %18, %2
  br label %10

10:                                               ; preds = %9
  %11 = load ptr, ptr %3, align 8, !tbaa !7
  %12 = load i32, ptr %4, align 4, !tbaa !3
  %13 = call i32 @Abc_SuppGenFindBest(ptr noundef %11, i32 noundef %12, ptr noundef %7)
  store i32 %13, ptr %8, align 4, !tbaa !3
  %14 = load i32, ptr %6, align 4, !tbaa !3
  %15 = load i32, ptr %7, align 4, !tbaa !3
  %16 = icmp sge i32 %14, %15
  br i1 %16, label %17, label %18

17:                                               ; preds = %10
  br label %28

18:                                               ; preds = %10
  %19 = load i32, ptr %7, align 4, !tbaa !3
  store i32 %19, ptr %6, align 4, !tbaa !3
  %20 = load ptr, ptr %3, align 8, !tbaa !7
  %21 = load i32, ptr %4, align 4, !tbaa !3
  %22 = load i32, ptr %8, align 4, !tbaa !3
  call void @Abc_SuppGenSelectVar(ptr noundef %20, i32 noundef %21, i32 noundef %22)
  %23 = load i32, ptr %8, align 4, !tbaa !3
  %24 = zext i32 %23 to i64
  %25 = shl i64 1, %24
  %26 = load i64, ptr %5, align 8, !tbaa !17
  %27 = or i64 %26, %25
  store i64 %27, ptr %5, align 8, !tbaa !17
  br label %9

28:                                               ; preds = %17
  %29 = load i64, ptr %5, align 8, !tbaa !17
  call void @llvm.lifetime.end.p0(i64 4, ptr %8) #13
  call void @llvm.lifetime.end.p0(i64 4, ptr %7) #13
  call void @llvm.lifetime.end.p0(i64 4, ptr %6) #13
  call void @llvm.lifetime.end.p0(i64 8, ptr %5) #13
  ret i64 %29
}