; Function Attrs: nofree norecurse nosync nounwind memory(readwrite, inaccessiblemem: none) uwtable
define i64 @Abc_SuppFindOne(ptr noundef readonly captures(none) %0, i32 noundef %1) local_unnamed_addr #9 {
  %3 = alloca [64 x i32], align 16
  %4 = getelementptr i8, ptr %0, i64 4
  %.val17.i.i = load i32, ptr %4, align 4, !tbaa !3
  %5 = icmp sgt i32 %.val17.i.i, 0
  %6 = zext i32 %1 to i64
  %7 = zext nneg i32 %.val17.i.i to i64
  %8 = icmp sgt i32 %1, 1
  %9 = shl nuw i64 1, %6
  br i1 %5, label %.split.us, label %.split

.split.us:                                        ; preds = %2
  %10 = getelementptr i8, ptr %0, i64 8
  %11 = icmp sgt i32 %1, 0
  %.val15.i.i.us = load ptr, ptr %10, align 8, !tbaa !11
  %12 = getelementptr inbounds nuw i64, ptr %.val15.i.i.us, i64 %7
  br i1 %11, label %.lr.ph20.i.i.us.us, label %.thread.us.lr.ph

.lr.ph20.i.i.us.us:                               ; preds = %.split.us, %Abc_SuppGenSelectVar.exit.loopexit.us.us
  %.08.us.us = phi i32 [ %33, %Abc_SuppGenSelectVar.exit.loopexit.us.us ], [ -1, %.split.us ]
  %.0.us.us = phi i64 [ %43, %Abc_SuppGenSelectVar.exit.loopexit.us.us ], [ 0, %.split.us ]
  call void @llvm.lifetime.start.p0(i64 256, ptr nonnull %3) #24
  call void @llvm.memset.p0.i64(ptr noundef nonnull align 16 dereferenceable(256) %3, i8 0, i64 256, i1 false)
  br label %.lr.ph.us.i.i.us.us

.lr.ph.us.i.i.us.us:                              ; preds = %._crit_edge.us.i.i.us.us, %.lr.ph20.i.i.us.us
  %indvars.iv23.i.i.us.us = phi i64 [ %indvars.iv.next24.i.i.us.us, %._crit_edge.us.i.i.us.us ], [ 0, %.lr.ph20.i.i.us.us ]
  %13 = getelementptr inbounds nuw i64, ptr %.val15.i.i.us, i64 %indvars.iv23.i.i.us.us
  %14 = load i64, ptr %13, align 8, !tbaa !12
  %15 = lshr i64 %14, %6
  br label %16

16:                                               ; preds = %16, %.lr.ph.us.i.i.us.us
  %indvars.iv.i.i.us.us = phi i64 [ 0, %.lr.ph.us.i.i.us.us ], [ %indvars.iv.next.i.i.us.us, %16 ]
  %17 = lshr i64 %14, %indvars.iv.i.i.us.us
  %18 = xor i64 %17, %15
  %19 = getelementptr inbounds nuw i32, ptr %3, i64 %indvars.iv.i.i.us.us
  %20 = load i32, ptr %19, align 4, !tbaa !22
  %21 = trunc i64 %18 to i32
  %22 = and i32 %21, 1
  %23 = add i32 %22, %20
  store i32 %23, ptr %19, align 4, !tbaa !22
  %indvars.iv.next.i.i.us.us = add nuw nsw i64 %indvars.iv.i.i.us.us, 1
  %exitcond.not.i.i.us.us = icmp eq i64 %indvars.iv.next.i.i.us.us, %6
  br i1 %exitcond.not.i.i.us.us, label %._crit_edge.us.i.i.us.us, label %16, !llvm.loop !27

._crit_edge.us.i.i.us.us:                         ; preds = %16
  %indvars.iv.next24.i.i.us.us = add nuw nsw i64 %indvars.iv23.i.i.us.us, 1
  %exitcond.not.i.us.us = icmp eq i64 %indvars.iv.next24.i.i.us.us, %7
  br i1 %exitcond.not.i.us.us, label %Abc_SuppGenProfile.exit.i.loopexit.us.us, label %.lr.ph.us.i.i.us.us, !llvm.loop !28

.lr.ph.i.us.us:                                   ; preds = %Abc_SuppGenProfile.exit.i.loopexit.us.us, %.lr.ph.i.us.us
  %indvars.iv.i.us.us = phi i64 [ %indvars.iv.next.i.us.us, %.lr.ph.i.us.us ], [ 1, %Abc_SuppGenProfile.exit.i.loopexit.us.us ]
  %.012.i.us.us = phi i32 [ %spec.select.i.us.us, %.lr.ph.i.us.us ], [ 0, %Abc_SuppGenProfile.exit.i.loopexit.us.us ]
  %24 = zext nneg i32 %.012.i.us.us to i64
  %25 = getelementptr inbounds nuw [64 x i32], ptr %3, i64 0, i64 %24
  %26 = load i32, ptr %25, align 4, !tbaa !22
  %27 = getelementptr inbounds nuw [64 x i32], ptr %3, i64 0, i64 %indvars.iv.i.us.us
  %28 = load i32, ptr %27, align 4, !tbaa !22
  %29 = icmp slt i32 %26, %28
  %30 = trunc nuw nsw i64 %indvars.iv.i.us.us to i32
  %spec.select.i.us.us = select i1 %29, i32 %30, i32 %.012.i.us.us
  %indvars.iv.next.i.us.us = add nuw nsw i64 %indvars.iv.i.us.us, 1
  %exitcond14.not.i.us.us = icmp eq i64 %indvars.iv.next.i.us.us, %6
  br i1 %exitcond14.not.i.us.us, label %Abc_SuppGenFindBest.exit.us.us.loopexit, label %.lr.ph.i.us.us, !llvm.loop !30

Abc_SuppGenFindBest.exit.us.us.loopexit:          ; preds = %.lr.ph.i.us.us
  %31 = zext nneg i32 %spec.select.i.us.us to i64
  br label %Abc_SuppGenFindBest.exit.us.us

Abc_SuppGenFindBest.exit.us.us:                   ; preds = %Abc_SuppGenFindBest.exit.us.us.loopexit, %Abc_SuppGenProfile.exit.i.loopexit.us.us
  %.0.lcssa.i.us.us = phi i64 [ 0, %Abc_SuppGenProfile.exit.i.loopexit.us.us ], [ %31, %Abc_SuppGenFindBest.exit.us.us.loopexit ]
  %32 = getelementptr inbounds nuw [64 x i32], ptr %3, i64 0, i64 %.0.lcssa.i.us.us
  %33 = load i32, ptr %32, align 4, !tbaa !22
  call void @llvm.lifetime.end.p0(i64 256, ptr nonnull %3) #24
  %.not.us.us = icmp slt i32 %.08.us.us, %33
  br i1 %.not.us.us, label %.lr.ph.i10.us.us, label %.split16.us

.lr.ph.i10.us.us:                                 ; preds = %Abc_SuppGenFindBest.exit.us.us
  %34 = shl nuw i64 1, %.0.lcssa.i.us.us
  br label %35

35:                                               ; preds = %40, %.lr.ph.i10.us.us
  %.010.i.us.us = phi ptr [ %.val15.i.i.us, %.lr.ph.i10.us.us ], [ %41, %40 ]
  %36 = load i64, ptr %.010.i.us.us, align 8, !tbaa !12
  %37 = and i64 %36, %34
  %.not.i.us.us = icmp eq i64 %37, 0
  br i1 %.not.i.us.us, label %40, label %38

38:                                               ; preds = %35
  %39 = xor i64 %36, %9
  store i64 %39, ptr %.010.i.us.us, align 8, !tbaa !12
  br label %40

40:                                               ; preds = %38, %35
  %41 = getelementptr inbounds nuw i8, ptr %.010.i.us.us, i64 8
  %42 = icmp ult ptr %41, %12
  br i1 %42, label %35, label %Abc_SuppGenSelectVar.exit.loopexit.us.us, !llvm.loop !31

Abc_SuppGenSelectVar.exit.loopexit.us.us:         ; preds = %40
  %43 = or i64 %34, %.0.us.us
  br label %.lr.ph20.i.i.us.us

Abc_SuppGenProfile.exit.i.loopexit.us.us:         ; preds = %._crit_edge.us.i.i.us.us
  br i1 %8, label %.lr.ph.i.us.us, label %Abc_SuppGenFindBest.exit.us.us

.thread.us.lr.ph:                                 ; preds = %.split.us, %48
  %.010.i.us = phi ptr [ %49, %48 ], [ %.val15.i.i.us, %.split.us ]
  %44 = load i64, ptr %.010.i.us, align 8, !tbaa !12
  %45 = and i64 %44, 1
  %.not.i.us = icmp eq i64 %45, 0
  br i1 %.not.i.us, label %48, label %46

46:                                               ; preds = %.thread.us.lr.ph
  %47 = xor i64 %44, %9
  store i64 %47, ptr %.010.i.us, align 8, !tbaa !12
  br label %48

48:                                               ; preds = %46, %.thread.us.lr.ph
  %49 = getelementptr inbounds nuw i8, ptr %.010.i.us, i64 8
  %50 = icmp ult ptr %49, %12
  br i1 %50, label %.thread.us.lr.ph, label %.split16.us, !llvm.loop !31

.split:                                           ; preds = %2
  br i1 %8, label %Abc_SuppGenProfile.exit.i.us17, label %.split16.us

Abc_SuppGenProfile.exit.i.us17:                   ; preds = %.split, %Abc_SuppGenSelectVar.exit.us30
  %.08.us18 = phi i32 [ %62, %Abc_SuppGenSelectVar.exit.us30 ], [ -1, %.split ]
  %.0.us19 = phi i64 [ %59, %Abc_SuppGenSelectVar.exit.us30 ], [ 0, %.split ]
  call void @llvm.lifetime.start.p0(i64 256, ptr nonnull %3) #24
  call void @llvm.memset.p0.i64(ptr noundef nonnull align 16 dereferenceable(256) %3, i8 0, i64 256, i1 false)
  br label %.lr.ph.i.us21

.lr.ph.i.us21:                                    ; preds = %.lr.ph.i.us21, %Abc_SuppGenProfile.exit.i.us17
  %indvars.iv.i.us22 = phi i64 [ 1, %Abc_SuppGenProfile.exit.i.us17 ], [ %indvars.iv.next.i.us25, %.lr.ph.i.us21 ]
  %.012.i.us23 = phi i32 [ 0, %Abc_SuppGenProfile.exit.i.us17 ], [ %spec.select.i.us24, %.lr.ph.i.us21 ]
  %51 = zext nneg i32 %.012.i.us23 to i64
  %52 = getelementptr inbounds nuw [64 x i32], ptr %3, i64 0, i64 %51
  %53 = load i32, ptr %52, align 4, !tbaa !22
  %54 = getelementptr inbounds nuw [64 x i32], ptr %3, i64 0, i64 %indvars.iv.i.us22
  %55 = load i32, ptr %54, align 4, !tbaa !22
  %56 = icmp slt i32 %53, %55
  %57 = trunc nuw nsw i64 %indvars.iv.i.us22 to i32
  %spec.select.i.us24 = select i1 %56, i32 %57, i32 %.012.i.us23
  %indvars.iv.next.i.us25 = add nuw nsw i64 %indvars.iv.i.us22, 1
  %exitcond14.not.i.us26 = icmp eq i64 %indvars.iv.next.i.us25, %6
  br i1 %exitcond14.not.i.us26, label %Abc_SuppGenFindBest.exit.loopexit.us31, label %.lr.ph.i.us21, !llvm.loop !30

Abc_SuppGenSelectVar.exit.us30:                   ; preds = %Abc_SuppGenFindBest.exit.loopexit.us31
  %58 = shl nuw i64 1, %60
  %59 = or i64 %58, %.0.us19
  br label %Abc_SuppGenProfile.exit.i.us17

Abc_SuppGenFindBest.exit.loopexit.us31:           ; preds = %.lr.ph.i.us21
  %60 = zext nneg i32 %spec.select.i.us24 to i64
  %61 = getelementptr inbounds nuw [64 x i32], ptr %3, i64 0, i64 %60
  %62 = load i32, ptr %61, align 4, !tbaa !22
  call void @llvm.lifetime.end.p0(i64 256, ptr nonnull %3) #24
  %.not.us29 = icmp slt i32 %.08.us18, %62
  br i1 %.not.us29, label %Abc_SuppGenSelectVar.exit.us30, label %.split16.us

.split16.us:                                      ; preds = %Abc_SuppGenFindBest.exit.loopexit.us31, %48, %Abc_SuppGenFindBest.exit.us.us, %.split
  %.us-phi = phi i64 [ 1, %.split ], [ %.0.us.us, %Abc_SuppGenFindBest.exit.us.us ], [ 1, %48 ], [ %.0.us19, %Abc_SuppGenFindBest.exit.loopexit.us31 ]
  ret i64 %.us-phi
}